target datalayout = "e-m:e-p270:32:32-p271:32:32-p272:64:64-i64:64-i128:128-f80:128-n8:16:32:64-S128"
target triple = "x86_64-pc-linux-gnu"

%"class.vcg::Matrix44" = type { %"struct.std::array" }
%"struct.std::array" = type { [16 x float] }
%class.EditManipulatorsPlugin = type { %class.QObject, %class.EditTool, %class.QFont, %"class.vcg::Matrix44", %"class.vcg::Matrix44", i32, i32, i8, i8, float, %class.QString, i8, float, i8, %"class.vcg::Point2", %"class.vcg::Point2", float, float, float, float, float, float, float, float, float, float, %"class.vcg::Point3", %"class.vcg::Point3", %"class.vcg::Point3" }
%class.QObject = type { ptr, %class.QScopedPointer }
%class.QScopedPointer = type { ptr }
%class.EditTool = type { %class.MeshLabPluginLogger }
%class.MeshLabPluginLogger = type { ptr, ptr }
%class.QFont = type <{ %class.QExplicitlySharedDataPointer, i32, [4 x i8] }>
%class.QExplicitlySharedDataPointer = type { ptr }
%class.QString = type { ptr }
%"class.vcg::Point2" = type { [2 x i32] }
%"class.vcg::Point3" = type { [3 x float] }

; Function Attrs: mustprogress nounwind uwtable
define linkonce_odr noundef nonnull align 4 dereferenceable(4) ptr @_ZSt3minIfERKT_S2_S2_(ptr noundef nonnull align 4 dereferenceable(4) %0, ptr noundef nonnull align 4 dereferenceable(4) %1) #4 comdat {
  %3 = alloca ptr, align 8
  %4 = alloca ptr, align 8
  %5 = alloca ptr, align 8
  store ptr %0, ptr %4, align 8
  store ptr %1, ptr %5, align 8
  %6 = load ptr, ptr %5, align 8
  %7 = load float, ptr %6, align 4
  %8 = load ptr, ptr %4, align 8
  %9 = load float, ptr %8, align 4
  %10 = fcmp olt float %7, %9
  br i1 %10, label %11, label %13

11:                                               ; preds = %2
  %12 = load ptr, ptr %5, align 8
  store ptr %12, ptr %3, align 8
  br label %15

13:                                               ; preds = %2
  %14 = load ptr, ptr %4, align 8
  store ptr %14, ptr %3, align 8
  br label %15

15:                                               ; preds = %13, %11
  %16 = load ptr, ptr %3, align 8
  ret ptr %16
}

; Function Attrs: mustprogress uwtable
define void @_ZN22EditManipulatorsPlugin10DrawCircleEfff(ptr noundef nonnull align 8 dereferenceable(304) %0, float noundef %1, float noundef %2, float noundef %3) #5 align 2 {
  %5 = alloca ptr, align 8
  %6 = alloca float, align 4
  %7 = alloca float, align 4
  %8 = alloca float, align 4
  %9 = alloca i32, align 4
  %10 = alloca double, align 8
  %11 = alloca double, align 8
  %12 = alloca float, align 4
  %13 = alloca float, align 4
  %14 = alloca float, align 4
  %15 = alloca float, align 4
  %16 = alloca float, align 4
  %17 = alloca float, align 4
  %18 = alloca i32, align 4
  %19 = alloca double, align 8
  store ptr %0, ptr %5, align 8
  store float %1, ptr %6, align 4
  store float %2, ptr %7, align 4
  store float %3, ptr %8, align 4
  %20 = load ptr, ptr %5, align 8
  store i32 32, ptr %9, align 4
  store double 0x401921FB53C8D4F1, ptr %10, align 8
  %21 = load float, ptr %6, align 4
  %22 = load float, ptr %7, align 4
  %23 = load float, ptr %8, align 4
  call void @glColor4f(float noundef %21, float noundef %22, float noundef %23, float noundef 1.000000e+00)
  call void @glBegin(i32 noundef 2)
  store double 0.000000e+00, ptr %11, align 8
  br label %24

24:                                               ; preds = %54, %4
  %25 = load double, ptr %11, align 8
  %26 = load i32, ptr %9, align 4
  %27 = sitofp i32 %26 to double
  %28 = fcmp olt double %25, %27
  br i1 %28, label %29, label %57

29:                                               ; preds = %24
  %30 = load double, ptr %11, align 8
  %31 = fmul double %30, 0x401921FB53C8D4F1
  %32 = load i32, ptr %9, align 4
  %33 = sitofp i32 %32 to double
  %34 = fdiv double %31, %33
  %35 = call double @cos(double noundef %34) #3
  %36 = load double, ptr %11, align 8
  %37 = fmul double %36, 0x401921FB53C8D4F1
  %38 = load i32, ptr %9, align 4
  %39 = sitofp i32 %38 to double
  %40 = fdiv double %37, %39
  %41 = call double @sin(double noundef %40) #3
  call void @glNormal3d(double noundef %35, double noundef %41, double noundef 0.000000e+00)
  %42 = load double, ptr %11, align 8
  %43 = fmul double %42, 0x401921FB53C8D4F1
  %44 = load i32, ptr %9, align 4
  %45 = sitofp i32 %44 to double
  %46 = fdiv double %43, %45
  %47 = call double @cos(double noundef %46) #3
  %48 = load double, ptr %11, align 8
  %49 = fmul double %48, 0x401921FB53C8D4F1
  %50 = load i32, ptr %9, align 4
  %51 = sitofp i32 %50 to double
  %52 = fdiv double %49, %51
  %53 = call double @sin(double noundef %52) #3
  call void @glVertex3d(double noundef %47, double noundef %53, double noundef 0.000000e+00)
  br label %54

54:                                               ; preds = %29
  %55 = load double, ptr %11, align 8
  %56 = fadd double %55, 1.000000e+00
  store double %56, ptr %11, align 8
  br label %24, !llvm.loop !15

57:                                               ; preds = %24
  call void @glEnd()
  store float 1.000000e+00, ptr %12, align 4
  %58 = load float, ptr %6, align 4
  %59 = fadd float %58, 0x3FC99999A0000000
  store float %59, ptr %13, align 4
  %60 = call noundef nonnull align 4 dereferenceable(4) ptr @_ZSt3minIfERKT_S2_S2_(ptr noundef nonnull align 4 dereferenceable(4) %12, ptr noundef nonnull align 4 dereferenceable(4) %13)
  %61 = load float, ptr %60, align 4
  store float 1.000000e+00, ptr %14, align 4
  %62 = load float, ptr %7, align 4
  %63 = fadd float %62, 0x3FC99999A0000000
  store float %63, ptr %15, align 4
  %64 = call noundef nonnull align 4 dereferenceable(4) ptr @_ZSt3minIfERKT_S2_S2_(ptr noundef nonnull align 4 dereferenceable(4) %14, ptr noundef nonnull align 4 dereferenceable(4) %15)
  %65 = load float, ptr %64, align 4
  store float 1.000000e+00, ptr %16, align 4
  %66 = load float, ptr %8, align 4
  %67 = fadd float %66, 0x3FC99999A0000000
  store float %67, ptr %17, align 4
  %68 = call noundef nonnull align 4 dereferenceable(4) ptr @_ZSt3minIfERKT_S2_S2_(ptr noundef nonnull align 4 dereferenceable(4) %16, ptr noundef nonnull align 4 dereferenceable(4) %17)
  %69 = load float, ptr %68, align 4
  call void @glColor4f(float noundef %61, float noundef %65, float noundef %69, float noundef 5.000000e-01)
  call void @glBegin(i32 noundef 6)
  call void @glVertex3d(double noundef 0.000000e+00, double noundef 0.000000e+00, double noundef 0.000000e+00)
  %70 = getelementptr inbounds %class.EditManipulatorsPlugin, ptr %20, i32 0, i32 18
  %71 = load float, ptr %70, align 4
  %72 = fcmp oge float %71, 0.000000e+00
  br i1 %72, label %73, label %78

73:                                               ; preds = %57
  %74 = getelementptr inbounds %class.EditManipulatorsPlugin, ptr %20, i32 0, i32 18
  %75 = load float, ptr %74, align 4
  %76 = fptosi float %75 to i32
  %77 = srem i32 %76, 360
  store i32 %77, ptr %18, align 4
  br label %85

78:                                               ; preds = %57
  %79 = getelementptr inbounds %class.EditManipulatorsPlugin, ptr %20, i32 0, i32 18
  %80 = load float, ptr %79, align 4
  %81 = fneg float %80
  %82 = fptosi float %81 to i32
  %83 = srem i32 %82, 360
  %84 = sub nsw i32 360, %83
  store i32 %84, ptr %18, align 4
  br label %85

85:                                               ; preds = %78, %73
  store double 0.000000e+00, ptr %19, align 8
  br label %86

86:                                               ; preds = %100, %85
  %87 = load double, ptr %19, align 8
  %88 = load i32, ptr %18, align 4
  %89 = sitofp i32 %88 to double
  %90 = fcmp ole double %87, %89
  br i1 %90, label %91, label %103

91:                                               ; preds = %86
  %92 = load double, ptr %19, align 8
  %93 = fmul double %92, 0x401921FB53C8D4F1
  %94 = fdiv double %93, 3.600000e+02
  %95 = call double @cos(double noundef %94) #3
  %96 = load double, ptr %19, align 8
  %97 = fmul double %96, 0x401921FB53C8D4F1
  %98 = fdiv double %97, 3.600000e+02
  %99 = call double @sin(double noundef %98) #3
  call void @glVertex3d(double noundef %95, double noundef %99, double noundef 0.000000e+00)
  br label %100

100:                                              ; preds = %91
  %101 = load double, ptr %19, align 8
  %102 = fadd double %101, 1.000000e+00
  store double %102, ptr %19, align 8
  br label %86, !llvm.loop !16

103:                                              ; preds = %86
  call void @glEnd()
  ret void
}