; Function Attrs: mustprogress uwtable
define void @_ZN22EditManipulatorsPlugin10DrawCircleEfff(ptr nocapture noundef nonnull readonly align 8 dereferenceable(304) %0, float noundef %1, float noundef %2, float noundef %3) local_unnamed_addr #9 align 2 {
  tail call void @glColor4f(float noundef %1, float noundef %2, float noundef %3, float noundef 1.000000e+00)
  tail call void @glBegin(i32 noundef 2)
  br label %5

5:                                                ; preds = %4, %5
  %.02337.int = phi i32 [ 0, %4 ], [ %.int, %5 ]
  %indvar.conv = sitofp i32 %.02337.int to double
  %6 = fmul double %indvar.conv, 0x401921FB53C8D4F1
  %7 = fmul double %6, 3.125000e-02
  %8 = tail call double @cos(double noundef %7) #23
  %9 = tail call double @sin(double noundef %7) #23
  tail call void @glNormal3d(double noundef %8, double noundef %9, double noundef 0.000000e+00)
  %10 = tail call double @cos(double noundef %7) #23
  %11 = tail call double @sin(double noundef %7) #23
  tail call void @glVertex3d(double noundef %10, double noundef %11, double noundef 0.000000e+00)
  %.int = add nuw nsw i32 %.02337.int, 1
  %exitcond.not = icmp eq i32 %.int, 32
  br i1 %exitcond.not, label %12, label %5, !llvm.loop !79

12:                                               ; preds = %5
  tail call void @glEnd()
  %13 = fadd float %1, 0x3FC99999A0000000
  %14 = fcmp olt float %13, 1.000000e+00
  %.sroa.speculated33 = select i1 %14, float %13, float 1.000000e+00
  %15 = fadd float %2, 0x3FC99999A0000000
  %16 = fcmp olt float %15, 1.000000e+00
  %.sroa.speculated28 = select i1 %16, float %15, float 1.000000e+00
  %17 = fadd float %3, 0x3FC99999A0000000
  %18 = fcmp olt float %17, 1.000000e+00
  %.sroa.speculated = select i1 %18, float %17, float 1.000000e+00
  tail call void @glColor4f(float noundef %.sroa.speculated33, float noundef %.sroa.speculated28, float noundef %.sroa.speculated, float noundef 5.000000e-01)
  tail call void @glBegin(i32 noundef 6)
  tail call void @glVertex3d(double noundef 0.000000e+00, double noundef 0.000000e+00, double noundef 0.000000e+00)
  %19 = getelementptr inbounds i8, ptr %0, i64 236
  %20 = load float, ptr %19, align 4
  %21 = fcmp ult float %20, 0.000000e+00
  br i1 %21, label %.thread, label %26

.thread:                                          ; preds = %12
  %22 = fneg float %20
  %23 = fptosi float %22 to i32
  %24 = srem i32 %23, 360
  %25 = sub nsw i32 360, %24
  br label %.lr.ph.preheader

26:                                               ; preds = %12
  %27 = fptosi float %20 to i32
  %28 = srem i32 %27, 360
  %29 = icmp slt i32 %28, 0
  br i1 %29, label %._crit_edge, label %.lr.ph.preheader

.lr.ph.preheader:                                 ; preds = %.thread, %26
  %.in = phi i32 [ %25, %.thread ], [ %28, %26 ]
  %30 = sitofp i32 %.in to double
  br label %.lr.ph

.lr.ph:                                           ; preds = %.lr.ph.preheader, %.lr.ph
  %.038 = phi double [ %35, %.lr.ph ], [ 0.000000e+00, %.lr.ph.preheader ]
  %31 = fmul double %.038, 0x401921FB53C8D4F1
  %32 = fdiv double %31, 3.600000e+02
  %33 = tail call double @cos(double noundef %32) #23
  %34 = tail call double @sin(double noundef %32) #23
  tail call void @glVertex3d(double noundef %33, double noundef %34, double noundef 0.000000e+00)
  %35 = fadd double %.038, 1.000000e+00
  %36 = fcmp ugt double %35, %30
  br i1 %36, label %._crit_edge, label %.lr.ph, !llvm.loop !80

._crit_edge:                                      ; preds = %.lr.ph, %26
  tail call void @glEnd()
  ret void
}